Certificate:
    Data:
        Version: 3 (0x2)
        Serial Number:
            ed:d2:7e:97:39:35:b6:c1
        Signature Algorithm: sha1WithRSAEncryption
        Issuer: C=EE, ST=Harjumaa, L=Tallinn, O=Koolisysteemide OY, CN=Minukool/emailAddress=info@minukool.ee
        Validity
            Not Before: Jul  8 07:42:21 2008 GMT
            Not After : Aug  7 07:42:21 2008 GMT
        Subject: C=EE, ST=Harjumaa, L=Tallinn, O=Koolisysteemide OY, CN=Minukool/emailAddress=info@minukool.ee
        Subject Public Key Info:
            Public Key Algorithm: rsaEncryption
            RSA Public Key: (1024 bit)
                Modulus (1024 bit):
                    00:e6:ea:1b:17:8d:18:fd:51:b0:fa:84:2b:88:23:
                    25:50:c5:0a:ee:39:14:f7:61:ea:53:7e:37:db:54:
                    39:9f:5e:b4:5f:e9:cd:d5:ae:8b:47:2d:9e:65:36:
                    b8:61:88:dc:00:11:96:a9:ab:18:93:25:2f:70:dd:
                    05:cf:c6:66:d5:df:43:68:e3:8d:6d:7f:88:cc:8b:
                    f2:09:6e:23:eb:fa:62:0a:5a:86:00:a0:0b:48:5a:
                    e5:45:52:77:90:12:6c:93:50:25:94:c3:05:bf:be:
                    11:68:eb:42:a5:13:b6:26:e9:2b:60:e9:0b:2d:e3:
                    e4:94:2a:2c:11:0d:bc:0c:49
                Exponent: 65537 (0x10001)
        X509v3 extensions:
            X509v3 Subject Key Identifier: 
                55:24:C8:60:87:B6:29:0B:3E:38:6A:5B:E5:87:A2:A9:5D:76:92:CA
            X509v3 Authority Key Identifier: 
                keyid:55:24:C8:60:87:B6:29:0B:3E:38:6A:5B:E5:87:A2:A9:5D:76:92:CA
                DirName:/C=EE/ST=Harjumaa/L=Tallinn/O=Koolisysteemide OY/CN=Minukool/emailAddress=info@minukool.ee
                serial:ED:D2:7E:97:39:35:B6:C1

            X509v3 Basic Constraints: 
                CA:TRUE
    Signature Algorithm: sha1WithRSAEncryption
        cb:87:d2:e0:69:f3:a9:c3:3b:19:d3:80:ab:82:48:dd:71:41:
        73:37:b7:02:fc:92:13:f8:88:6c:18:3a:e8:b6:e5:3b:e2:c9:
        81:0b:1e:ef:10:19:3a:7c:11:5d:78:e6:c9:cb:e2:83:7c:5b:
        cc:5a:a6:3e:6d:7e:a9:cb:55:07:48:b9:cb:d5:31:37:a1:c6:
        0b:85:37:1a:8c:ef:bf:73:42:1d:ff:07:f2:be:8d:b9:bf:4a:
        62:5f:36:39:a6:23:0a:6e:9f:7b:c0:f7:65:98:b4:02:57:5d:
        12:7e:4f:3f:d2:4b:98:42:07:76:4d:67:36:d0:93:ee:9e:cd:
        8a:ac
-----BEGIN CERTIFICATE-----
MIIDcjCCAtugAwIBAgIJAO3Sfpc5NbbBMA0GCSqGSIb3DQEBBQUAMIGDMQswCQYD
VQQGEwJFRTERMA8GA1UECBMISGFyanVtYWExEDAOBgNVBAcTB1RhbGxpbm4xGzAZ
BgNVBAoTEktvb2xpc3lzdGVlbWlkZSBPWTERMA8GA1UEAxMITWludWtvb2wxHzAd
BgkqhkiG9w0BCQEWEGluZm9AbWludWtvb2wuZWUwHhcNMDgwNzA4MDc0MjIxWhcN
MDgwODA3MDc0MjIxWjCBgzELMAkGA1UEBhMCRUUxETAPBgNVBAgTCEhhcmp1bWFh
MRAwDgYDVQQHEwdUYWxsaW5uMRswGQYDVQQKExJLb29saXN5c3RlZW1pZGUgT1kx
ETAPBgNVBAMTCE1pbnVrb29sMR8wHQYJKoZIhvcNAQkBFhBpbmZvQG1pbnVrb29s
LmVlMIGfMA0GCSqGSIb3DQEBAQUAA4GNADCBiQKBgQDm6hsXjRj9UbD6hCuIIyVQ
xQruORT3YepTfjfbVDmfXrRf6c3VrotHLZ5lNrhhiNwAEZapqxiTJS9w3QXPxmbV
30No441tf4jMi/IJbiPr+mIKWoYAoAtIWuVFUneQEmyTUCWUwwW/vhFo60KlE7Ym
6Stg6Qst4+SUKiwRDbwMSQIDAQABo4HrMIHoMB0GA1UdDgQWBBRVJMhgh7YpCz44
alvlh6KpXXaSyjCBuAYDVR0jBIGwMIGtgBRVJMhgh7YpCz44alvlh6KpXXaSyqGB
iaSBhjCBgzELMAkGA1UEBhMCRUUxETAPBgNVBAgTCEhhcmp1bWFhMRAwDgYDVQQH
EwdUYWxsaW5uMRswGQYDVQQKExJLb29saXN5c3RlZW1pZGUgT1kxETAPBgNVBAMT
CE1pbnVrb29sMR8wHQYJKoZIhvcNAQkBFhBpbmZvQG1pbnVrb29sLmVlggkA7dJ+
lzk1tsEwDAYDVR0TBAUwAwEB/zANBgkqhkiG9w0BAQUFAAOBgQDLh9LgafOpwzsZ
04CrgkjdcUFzN7cC/JIT+IhsGDrotuU74smBCx7vEBk6fBFdeObJy+KDfFvMWqY+
bX6py1UHSLnL1TE3ocYLhTcajO+/c0Id/wfyvo25v0piXzY5piMKbp97wPdlmLQC
V10Sfk8/0kuYQgd2TWc20JPuns2KrA==
-----END CERTIFICATE-----
